; Function Attrs: mustprogress uwtable
define noundef ptr @_ZN18OpenImageIO_v2_6_024hdr_input_imageio_createEv() local_unnamed_addr #6 personality ptr @__gxx_personality_v0 {
entry:
  %call = tail call noundef ptr @_ZN18OpenImageIO_v2_6_010ImageInputnwEm(i64 noundef 248)
  invoke void @_ZN18OpenImageIO_v2_6_010ImageInputC2Ev(ptr noundef nonnull align 8 dereferenceable(184) %call)
          to label %.noexc unwind label %lpad

.noexc:                                           ; preds = %entry
  store ptr getelementptr inbounds ({ [36 x ptr] }, ptr @_ZTVN18OpenImageIO_v2_6_08HdrInputE, i64 0, i32 0, i64 2), ptr %call, align 8
  %m_filename.i = getelementptr inbounds i8, ptr %call, i64 184
  tail call void @_ZNSt7__cxx1112basic_stringIcSt11char_traitsIcESaIcEEC1Ev(ptr noundef nonnull align 8 dereferenceable(32) %m_filename.i) #21
  %m_scanline_offsets.i = getelementptr inbounds i8, ptr %call, i64 224
  tail call void @llvm.memset.p0.i64(ptr noundef nonnull align 8 dereferenceable(24) %m_scanline_offsets.i, i8 0, i64 24, i1 false)
  %m_subimage.i.i = getelementptr inbounds i8, ptr %call, i64 216
  store i32 -1, ptr %m_subimage.i.i, align 8
  %m_next_scanline.i.i = getelementptr inbounds i8, ptr %call, i64 220
  store i32 0, ptr %m_next_scanline.i.i, align 4
  invoke void @_ZN18OpenImageIO_v2_6_010ImageInput13ioproxy_clearEv(ptr noundef nonnull align 8 dereferenceable(184) %call)
          to label %invoke.cont unwind label %lpad.i

lpad.i:                                           ; preds = %.noexc
  %0 = landingpad { ptr, i32 }
          cleanup
  %1 = load ptr, ptr %m_scanline_offsets.i, align 8
  %tobool.not.i.i.i1.i = icmp eq ptr %1, null
  br i1 %tobool.not.i.i.i1.i, label %_ZNSt6vectorIlSaIlEED2Ev.exit.i, label %if.then.i.i.i.i

if.then.i.i.i.i:                                  ; preds = %lpad.i
  tail call void @_ZdlPv(ptr noundef nonnull %1) #22
  br label %_ZNSt6vectorIlSaIlEED2Ev.exit.i

_ZNSt6vectorIlSaIlEED2Ev.exit.i:                  ; preds = %if.then.i.i.i.i, %lpad.i
  tail call void @_ZNSt7__cxx1112basic_stringIcSt11char_traitsIcESaIcEED1Ev(ptr noundef nonnull align 8 dereferenceable(32) %m_filename.i) #21
  tail call void @_ZN18OpenImageIO_v2_6_010ImageInputD2Ev(ptr noundef nonnull align 8 dereferenceable(184) %call) #21
  br label %lpad.body

invoke.cont:                                      ; preds = %.noexc
  ret ptr %call

lpad:                                             ; preds = %entry
  %2 = landingpad { ptr, i32 }
          cleanup
  br label %lpad.body

lpad.body:                                        ; preds = %_ZNSt6vectorIlSaIlEED2Ev.exit.i, %lpad
  %eh.lpad-body = phi { ptr, i32 } [ %2, %lpad ], [ %0, %_ZNSt6vectorIlSaIlEED2Ev.exit.i ]
  tail call void @_ZN18OpenImageIO_v2_6_010ImageInputdlEPv(ptr noundef %call) #21
  resume { ptr, i32 } %eh.lpad-body
}